target datalayout = "e-m:e-p270:32:32-p271:32:32-p272:64:64-i64:64-i128:128-f80:128-n8:16:32:64-S128"
target triple = "x86_64-pc-linux-gnu"

%struct.jpeg_decompress_struct = type { ptr, ptr, ptr, ptr, i32, i32, ptr, i32, i32, i32, i32, i32, i32, i32, double, i32, i32, i32, i32, i32, i32, i32, i32, i32, i32, i32, i32, i32, i32, i32, i32, i32, i32, ptr, i32, i32, i32, i32, i32, ptr, [4 x ptr], [4 x ptr], [4 x ptr], i32, ptr, i32, i32, [16 x i8], [16 x i8], [16 x i8], i32, i32, i8, i8, i8, i16, i16, i32, i8, i32, ptr, i32, i32, i32, i32, ptr, i32, [4 x ptr], i32, i32, i32, [10 x i32], i32, i32, i32, i32, i32, ptr, ptr, ptr, ptr, ptr, ptr, ptr, ptr, ptr, ptr, ptr }
%struct.my_diff_controller = type { %struct.jpeg_d_coef_controller, i32, i32, i32, i32, [10 x ptr], [10 x ptr], [10 x ptr] }
%struct.jpeg_d_coef_controller = type { ptr, ptr, ptr, ptr, ptr, ptr, i32, i32, i32, ptr }
%struct.jpeg_component_info = type { i32, i32, i32, i32, i32, i32, i32, i32, i32, i32, i32, i32, i32, i32, i32, i32, i32, i32, i32, ptr, ptr }
%struct.jpeg_inverse_dct = type { ptr, [10 x ptr], [10 x ptr] }
%struct.jpeg_error_mgr = type { ptr, ptr, ptr, ptr, ptr, i32, %union.anon, i32, i64, ptr, i32, ptr, i32, i32 }
%union.anon = type { [8 x i32], [48 x i8] }

; Function Attrs: nounwind uwtable
define internal void @start_iMCU_row(ptr noundef %0) #0 {
  %2 = alloca ptr, align 8
  %3 = alloca ptr, align 8
  store ptr %0, ptr %2, align 8
  %4 = load ptr, ptr %2, align 8
  %5 = getelementptr inbounds %struct.jpeg_decompress_struct, ptr %4, i32 0, i32 79
  %6 = load ptr, ptr %5, align 8
  store ptr %6, ptr %3, align 8
  %7 = load ptr, ptr %2, align 8
  %8 = getelementptr inbounds %struct.jpeg_decompress_struct, ptr %7, i32 0, i32 66
  %9 = load i32, ptr %8, align 8
  %10 = icmp sgt i32 %9, 1
  br i1 %10, label %11, label %14

11:                                               ; preds = %1
  %12 = load ptr, ptr %3, align 8
  %13 = getelementptr inbounds %struct.my_diff_controller, ptr %12, i32 0, i32 4
  store i32 1, ptr %13, align 4
  br label %42

14:                                               ; preds = %1
  %15 = load ptr, ptr %2, align 8
  %16 = getelementptr inbounds %struct.jpeg_decompress_struct, ptr %15, i32 0, i32 36
  %17 = load i32, ptr %16, align 8
  %18 = load ptr, ptr %2, align 8
  %19 = getelementptr inbounds %struct.jpeg_decompress_struct, ptr %18, i32 0, i32 64
  %20 = load i32, ptr %19, align 4
  %21 = sub i32 %20, 1
  %22 = icmp ult i32 %17, %21
  br i1 %22, label %23, label %32

23:                                               ; preds = %14
  %24 = load ptr, ptr %2, align 8
  %25 = getelementptr inbounds %struct.jpeg_decompress_struct, ptr %24, i32 0, i32 67
  %26 = getelementptr inbounds [4 x ptr], ptr %25, i64 0, i64 0
  %27 = load ptr, ptr %26, align 8
  %28 = getelementptr inbounds %struct.jpeg_component_info, ptr %27, i32 0, i32 3
  %29 = load i32, ptr %28, align 4
  %30 = load ptr, ptr %3, align 8
  %31 = getelementptr inbounds %struct.my_diff_controller, ptr %30, i32 0, i32 4
  store i32 %29, ptr %31, align 4
  br label %41

32:                                               ; preds = %14
  %33 = load ptr, ptr %2, align 8
  %34 = getelementptr inbounds %struct.jpeg_decompress_struct, ptr %33, i32 0, i32 67
  %35 = getelementptr inbounds [4 x ptr], ptr %34, i64 0, i64 0
  %36 = load ptr, ptr %35, align 8
  %37 = getelementptr inbounds %struct.jpeg_component_info, ptr %36, i32 0, i32 18
  %38 = load i32, ptr %37, align 8
  %39 = load ptr, ptr %3, align 8
  %40 = getelementptr inbounds %struct.my_diff_controller, ptr %39, i32 0, i32 4
  store i32 %38, ptr %40, align 4
  br label %41

41:                                               ; preds = %32, %23
  br label %42

42:                                               ; preds = %41, %11
  %43 = load ptr, ptr %3, align 8
  %44 = getelementptr inbounds %struct.my_diff_controller, ptr %43, i32 0, i32 1
  store i32 0, ptr %44, align 8
  %45 = load ptr, ptr %3, align 8
  %46 = getelementptr inbounds %struct.my_diff_controller, ptr %45, i32 0, i32 3
  store i32 0, ptr %46, align 8
  ret void
}

; Function Attrs: nounwind uwtable
define internal void @start_input_pass(ptr noundef %0) #0 {
  %2 = alloca ptr, align 8
  %3 = alloca ptr, align 8
  store ptr %0, ptr %2, align 8
  %4 = load ptr, ptr %2, align 8
  %5 = getelementptr inbounds %struct.jpeg_decompress_struct, ptr %4, i32 0, i32 79
  %6 = load ptr, ptr %5, align 8
  store ptr %6, ptr %3, align 8
  %7 = load ptr, ptr %2, align 8
  %8 = getelementptr inbounds %struct.jpeg_decompress_struct, ptr %7, i32 0, i32 84
  %9 = load ptr, ptr %8, align 8
  %10 = getelementptr inbounds %struct.jpeg_inverse_dct, ptr %9, i32 0, i32 0
  %11 = load ptr, ptr %10, align 8
  %12 = load ptr, ptr %2, align 8
  call void %11(ptr noundef %12)
  %13 = load ptr, ptr %2, align 8
  %14 = getelementptr inbounds %struct.jpeg_decompress_struct, ptr %13, i32 0, i32 50
  %15 = load i32, ptr %14, align 8
  %16 = load ptr, ptr %2, align 8
  %17 = getelementptr inbounds %struct.jpeg_decompress_struct, ptr %16, i32 0, i32 68
  %18 = load i32, ptr %17, align 8
  %19 = urem i32 %15, %18
  %20 = icmp ne i32 %19, 0
  br i1 %20, label %21, label %48

21:                                               ; preds = %1
  %22 = load ptr, ptr %2, align 8
  %23 = getelementptr inbounds %struct.jpeg_decompress_struct, ptr %22, i32 0, i32 0
  %24 = load ptr, ptr %23, align 8
  %25 = getelementptr inbounds %struct.jpeg_error_mgr, ptr %24, i32 0, i32 5
  store i32 129, ptr %25, align 8
  %26 = load ptr, ptr %2, align 8
  %27 = getelementptr inbounds %struct.jpeg_decompress_struct, ptr %26, i32 0, i32 50
  %28 = load i32, ptr %27, align 8
  %29 = load ptr, ptr %2, align 8
  %30 = getelementptr inbounds %struct.jpeg_decompress_struct, ptr %29, i32 0, i32 0
  %31 = load ptr, ptr %30, align 8
  %32 = getelementptr inbounds %struct.jpeg_error_mgr, ptr %31, i32 0, i32 6
  %33 = getelementptr inbounds [8 x i32], ptr %32, i64 0, i64 0
  store i32 %28, ptr %33, align 4
  %34 = load ptr, ptr %2, align 8
  %35 = getelementptr inbounds %struct.jpeg_decompress_struct, ptr %34, i32 0, i32 68
  %36 = load i32, ptr %35, align 8
  %37 = load ptr, ptr %2, align 8
  %38 = getelementptr inbounds %struct.jpeg_decompress_struct, ptr %37, i32 0, i32 0
  %39 = load ptr, ptr %38, align 8
  %40 = getelementptr inbounds %struct.jpeg_error_mgr, ptr %39, i32 0, i32 6
  %41 = getelementptr inbounds [8 x i32], ptr %40, i64 0, i64 1
  store i32 %36, ptr %41, align 4
  %42 = load ptr, ptr %2, align 8
  %43 = getelementptr inbounds %struct.jpeg_decompress_struct, ptr %42, i32 0, i32 0
  %44 = load ptr, ptr %43, align 8
  %45 = getelementptr inbounds %struct.jpeg_error_mgr, ptr %44, i32 0, i32 0
  %46 = load ptr, ptr %45, align 8
  %47 = load ptr, ptr %2, align 8
  call void %46(ptr noundef %47)
  br label %48

48:                                               ; preds = %21, %1
  %49 = load ptr, ptr %2, align 8
  %50 = getelementptr inbounds %struct.jpeg_decompress_struct, ptr %49, i32 0, i32 50
  %51 = load i32, ptr %50, align 8
  %52 = load ptr, ptr %2, align 8
  %53 = getelementptr inbounds %struct.jpeg_decompress_struct, ptr %52, i32 0, i32 68
  %54 = load i32, ptr %53, align 8
  %55 = udiv i32 %51, %54
  %56 = load ptr, ptr %3, align 8
  %57 = getelementptr inbounds %struct.my_diff_controller, ptr %56, i32 0, i32 2
  store i32 %55, ptr %57, align 4
  %58 = load ptr, ptr %2, align 8
  %59 = getelementptr inbounds %struct.jpeg_decompress_struct, ptr %58, i32 0, i32 36
  store i32 0, ptr %59, align 8
  %60 = load ptr, ptr %2, align 8
  call void @start_iMCU_row(ptr noundef %60)
  ret void
}