; Function Attrs: nounwind uwtable
define internal void @start_input_pass(ptr noundef %0) #0 {
  %2 = getelementptr inbounds nuw i8, ptr %0, i64 560
  %3 = load ptr, ptr %2, align 8
  %4 = getelementptr inbounds nuw i8, ptr %0, i64 600
  %5 = load ptr, ptr %4, align 8
  %6 = load ptr, ptr %5, align 8
  tail call void %6(ptr noundef %0) #5
  %7 = getelementptr inbounds nuw i8, ptr %0, i64 368
  %8 = load i32, ptr %7, align 8
  %9 = getelementptr inbounds nuw i8, ptr %0, i64 472
  %10 = load i32, ptr %9, align 8
  %11 = urem i32 %8, %10
  %.not = icmp eq i32 %11, 0
  br i1 %.not, label %23, label %12

12:                                               ; preds = %1
  %13 = load ptr, ptr %0, align 8
  %14 = getelementptr inbounds nuw i8, ptr %13, i64 40
  store i32 129, ptr %14, align 8
  %15 = load i32, ptr %7, align 8
  %16 = load ptr, ptr %0, align 8
  %17 = getelementptr inbounds nuw i8, ptr %16, i64 44
  store i32 %15, ptr %17, align 4
  %18 = load i32, ptr %9, align 8
  %19 = load ptr, ptr %0, align 8
  %20 = getelementptr inbounds nuw i8, ptr %19, i64 48
  store i32 %18, ptr %20, align 4
  %21 = load ptr, ptr %0, align 8
  %22 = load ptr, ptr %21, align 8
  tail call void %22(ptr noundef nonnull %0) #5
  %.pre = load i32, ptr %7, align 8
  %.pre18 = load i32, ptr %9, align 8
  br label %23

23:                                               ; preds = %12, %1
  %24 = phi i32 [ %.pre18, %12 ], [ %10, %1 ]
  %25 = phi i32 [ %.pre, %12 ], [ %8, %1 ]
  %26 = udiv i32 %25, %24
  %27 = getelementptr inbounds nuw i8, ptr %3, i64 76
  store i32 %26, ptr %27, align 4
  %28 = getelementptr inbounds nuw i8, ptr %0, i64 176
  store i32 0, ptr %28, align 8
  %29 = load ptr, ptr %2, align 8
  %30 = getelementptr inbounds nuw i8, ptr %0, i64 432
  %31 = load i32, ptr %30, align 8
  %32 = icmp sgt i32 %31, 1
  br i1 %32, label %33, label %35

33:                                               ; preds = %23
  %34 = getelementptr inbounds nuw i8, ptr %29, i64 84
  store i32 1, ptr %34, align 4
  br label %start_iMCU_row.exit

35:                                               ; preds = %23
  %36 = getelementptr inbounds nuw i8, ptr %0, i64 420
  %37 = load i32, ptr %36, align 4
  %.not17 = icmp eq i32 %37, 1
  %38 = getelementptr inbounds nuw i8, ptr %0, i64 440
  %39 = load ptr, ptr %38, align 8
  %40 = getelementptr inbounds nuw i8, ptr %29, i64 84
  br i1 %.not17, label %44, label %41

41:                                               ; preds = %35
  %42 = getelementptr inbounds nuw i8, ptr %39, i64 12
  %43 = load i32, ptr %42, align 4
  store i32 %43, ptr %40, align 4
  br label %start_iMCU_row.exit

44:                                               ; preds = %35
  %45 = getelementptr inbounds nuw i8, ptr %39, i64 72
  %46 = load i32, ptr %45, align 8
  store i32 %46, ptr %40, align 4
  br label %start_iMCU_row.exit

start_iMCU_row.exit:                              ; preds = %33, %41, %44
  %47 = getelementptr inbounds nuw i8, ptr %29, i64 72
  store i32 0, ptr %47, align 8
  %48 = getelementptr inbounds nuw i8, ptr %29, i64 80
  store i32 0, ptr %48, align 8
  ret void
}